; ModuleID = 'source-C-CXX/56/1986.c'
source_filename = "source-C-CXX/56/1986.c"
target datalayout = "e-m:e-p270:32:32-p271:32:32-p272:64:64-i64:64-f80:128-n8:16:32:64-S128"
target triple = "x86_64-pc-linux-gnu"

@.str = private unnamed_addr constant [3 x i8] c"%d\00", align 1
@.str.1 = private unnamed_addr constant [3 x i8] c"%s\00", align 1

; Function Attrs: nofree nounwind sspstrong uwtable
define dso_local i32 @main() local_unnamed_addr #0 {
  %1 = alloca i32, align 4
  %2 = alloca [50 x i32], align 16
  %3 = alloca [50 x [50 x i8]], align 16
  %4 = alloca [50 x [50 x i8]], align 16
  %5 = bitcast i32* %1 to i8*
  call void @llvm.lifetime.start.p0i8(i64 4, i8* nonnull %5) #6
  %6 = bitcast [50 x i32]* %2 to i8*
  call void @llvm.lifetime.start.p0i8(i64 200, i8* nonnull %6) #6
  %7 = call i32 (i8*, ...) @__isoc99_scanf(i8* getelementptr inbounds ([3 x i8], [3 x i8]* @.str, i64 0, i64 0), i32* nonnull %1)
  %8 = getelementptr inbounds [50 x [50 x i8]], [50 x [50 x i8]]* %3, i64 0, i64 0, i64 0
  call void @llvm.lifetime.start.p0i8(i64 2500, i8* nonnull %8) #6
  %9 = getelementptr inbounds [50 x [50 x i8]], [50 x [50 x i8]]* %4, i64 0, i64 0, i64 0
  call void @llvm.lifetime.start.p0i8(i64 2500, i8* nonnull %9) #6
  %10 = load i32, i32* %1, align 4, !tbaa !5
  %11 = icmp sgt i32 %10, 0
  br i1 %11, label %14, label %58

12:                                               ; preds = %14
  %13 = icmp sgt i32 %22, 0
  br i1 %13, label %25, label %58

14:                                               ; preds = %0, %14
  %15 = phi i64 [ %21, %14 ], [ 0, %0 ]
  %16 = getelementptr inbounds [50 x [50 x i8]], [50 x [50 x i8]]* %4, i64 0, i64 %15, i64 0
  %17 = call i32 (i8*, ...) @__isoc99_scanf(i8* getelementptr inbounds ([3 x i8], [3 x i8]* @.str.1, i64 0, i64 0), i8* nonnull %16)
  %18 = call i64 @strlen(i8* noundef nonnull %16) #7
  %19 = trunc i64 %18 to i32
  %20 = getelementptr inbounds [50 x i32], [50 x i32]* %2, i64 0, i64 %15
  store i32 %19, i32* %20, align 4, !tbaa !5
  %21 = add nuw nsw i64 %15, 1
  %22 = load i32, i32* %1, align 4, !tbaa !5
  %23 = sext i32 %22 to i64
  %24 = icmp slt i64 %21, %23
  br i1 %24, label %14, label %12, !llvm.loop !9

25:                                               ; preds = %12, %52
  %26 = phi i64 [ %54, %52 ], [ 0, %12 ]
  %27 = getelementptr [50 x [50 x i8]], [50 x [50 x i8]]* %3, i64 0, i64 %26, i64 0
  %28 = getelementptr [50 x [50 x i8]], [50 x [50 x i8]]* %4, i64 0, i64 %26, i64 0
  %29 = getelementptr inbounds [50 x i32], [50 x i32]* %2, i64 0, i64 %26
  %30 = load i32, i32* %29, align 4, !tbaa !5
  %31 = add nsw i32 %30, -1
  %32 = sext i32 %31 to i64
  %33 = getelementptr inbounds [50 x [50 x i8]], [50 x [50 x i8]]* %4, i64 0, i64 %26, i64 %32
  %34 = load i8, i8* %33, align 1, !tbaa !11
  switch i8 %34, label %52 [
    i8 114, label %35
    i8 103, label %37
    i8 121, label %39
  ]

35:                                               ; preds = %25
  %36 = icmp sgt i32 %30, 2
  br i1 %36, label %41, label %49

37:                                               ; preds = %25
  %38 = icmp sgt i32 %30, 3
  br i1 %38, label %41, label %49

39:                                               ; preds = %25
  %40 = icmp sgt i32 %30, 2
  br i1 %40, label %41, label %49

41:                                               ; preds = %39, %37, %35
  %42 = phi i32 [ -2, %35 ], [ -3, %37 ], [ -2, %39 ]
  %43 = phi i32 [ -3, %35 ], [ -4, %37 ], [ -3, %39 ]
  %44 = add nsw i32 %30, %42
  %45 = zext i32 %44 to i64
  call void @llvm.memcpy.p0i8.p0i8.i64(i8* align 2 %27, i8* align 2 %28, i64 %45, i1 false)
  %46 = add nsw i32 %30, %43
  %47 = zext i32 %46 to i64
  %48 = add nuw nsw i64 %47, 1
  br label %49

49:                                               ; preds = %41, %39, %37, %35
  %50 = phi i64 [ 0, %35 ], [ 0, %37 ], [ 0, %39 ], [ %48, %41 ]
  %51 = getelementptr inbounds [50 x [50 x i8]], [50 x [50 x i8]]* %3, i64 0, i64 %26, i64 %50
  store i8 0, i8* %51, align 1, !tbaa !11
  br label %52

52:                                               ; preds = %49, %25
  %53 = call i32 @puts(i8* nonnull %27)
  %54 = add nuw nsw i64 %26, 1
  %55 = load i32, i32* %1, align 4, !tbaa !5
  %56 = sext i32 %55 to i64
  %57 = icmp slt i64 %54, %56
  br i1 %57, label %25, label %58, !llvm.loop !12

58:                                               ; preds = %52, %0, %12
  call void @llvm.lifetime.end.p0i8(i64 2500, i8* nonnull %9) #6
  call void @llvm.lifetime.end.p0i8(i64 2500, i8* nonnull %8) #6
  call void @llvm.lifetime.end.p0i8(i64 200, i8* nonnull %6) #6
  call void @llvm.lifetime.end.p0i8(i64 4, i8* nonnull %5) #6
  ret i32 0
}

; Function Attrs: argmemonly mustprogress nofree nosync nounwind willreturn
declare void @llvm.lifetime.start.p0i8(i64 immarg, i8* nocapture) #1

; Function Attrs: nofree nounwind
declare noundef i32 @__isoc99_scanf(i8* nocapture noundef readonly, ...) local_unnamed_addr #2

; Function Attrs: argmemonly mustprogress nofree nounwind readonly willreturn
declare i64 @strlen(i8* nocapture) local_unnamed_addr #3

; Function Attrs: argmemonly mustprogress nofree nosync nounwind willreturn
declare void @llvm.lifetime.end.p0i8(i64 immarg, i8* nocapture) #1

; Function Attrs: nofree nounwind
declare noundef i32 @puts(i8* nocapture noundef readonly) local_unnamed_addr #4

; Function Attrs: argmemonly nofree nounwind willreturn
declare void @llvm.memcpy.p0i8.p0i8.i64(i8* noalias nocapture writeonly, i8* noalias nocapture readonly, i64, i1 immarg) #5


!llvm.module.flags = !{!0, !1, !2, !3}
!llvm.ident = !{!4}

!0 = !{i32 1, !"wchar_size", i32 4}
!1 = !{i32 7, !"PIC Level", i32 2}
!2 = !{i32 7, !"PIE Level", i32 2}
!3 = !{i32 7, !"uwtable", i32 1}
!4 = !{!"clang version 13.0.0"}
!5 = !{!6, !6, i64 0}
!6 = !{!"int", !7, i64 0}
!7 = !{!"omnipotent char", !8, i64 0}
!8 = !{!"Simple C/C++ TBAA"}
!9 = distinct !{!9, !10}
!10 = !{!"llvm.loop.mustprogress"}
!11 = !{!7, !7, i64 0}
!12 = distinct !{!12, !10}
